target datalayout = "e-m:e-p270:32:32-p271:32:32-p272:64:64-i64:64-i128:128-f80:128-n8:16:32:64-S128"
target triple = "x86_64-pc-linux-gnu"

@H5_libinit_g = external global i8, align 1
@H5_libterm_g = external global i8, align 1
@.str = private unnamed_addr constant [97 x i8] c"generated/home/dtcxzyw/WorkSpace/Projects/compilers/llvm-opt-benchmark/bench/hdf5/hdf5/src/H5P.c\00", align 1
@__func__.H5Pcopy = private unnamed_addr constant [8 x i8] c"H5Pcopy\00", align 1
@H5E_FUNC_g = external global i64, align 8
@H5E_CANTINIT_g = external global i64, align 8
@.str.1 = private unnamed_addr constant [30 x i8] c"library initialization failed\00", align 1
@H5E_CANTSET_g = external global i64, align 8
@.str.2 = private unnamed_addr constant [22 x i8] c"can't set API context\00", align 1
@H5E_ARGS_g = external global i64, align 8
@H5E_BADTYPE_g = external global i64, align 8
@.str.3 = private unnamed_addr constant [20 x i8] c"not property object\00", align 1
@H5E_PLIST_g = external global i64, align 8
@H5E_NOTFOUND_g = external global i64, align 8
@.str.4 = private unnamed_addr constant [30 x i8] c"property object doesn't exist\00", align 1
@H5E_CANTCOPY_g = external global i64, align 8
@.str.5 = private unnamed_addr constant [25 x i8] c"can't copy property list\00", align 1
@.str.6 = private unnamed_addr constant [26 x i8] c"can't copy property class\00", align 1
@H5E_CANTREGISTER_g = external global i64, align 8
@.str.7 = private unnamed_addr constant [39 x i8] c"unable to register property list class\00", align 1

; Function Attrs: nounwind uwtable
define i64 @H5Pcopy(i64 noundef %0) #0 {
  %2 = alloca i64, align 8
  %3 = alloca ptr, align 8
  %4 = alloca i64, align 8
  %5 = alloca i8, align 1
  %6 = alloca i8, align 1
  %7 = alloca ptr, align 8
  store i64 %0, ptr %2, align 8
  store i64 -1, ptr %4, align 8
  store i8 0, ptr %5, align 1
  store i8 0, ptr %6, align 1
  %8 = load i8, ptr @H5_libinit_g, align 1
  %9 = trunc i8 %8 to i1
  br i1 %9, label %14, label %10

10:                                               ; preds = %1
  %11 = load i8, ptr @H5_libterm_g, align 1
  %12 = trunc i8 %11 to i1
  %13 = xor i1 %12, true
  br label %14

14:                                               ; preds = %10, %1
  %15 = phi i1 [ false, %1 ], [ %13, %10 ]
  %16 = xor i1 %15, true
  %17 = xor i1 %16, true
  %18 = zext i1 %17 to i32
  %19 = sext i32 %18 to i64
  %20 = icmp ne i64 %19, 0
  br i1 %20, label %21, label %45

21:                                               ; preds = %14
  %22 = call i32 @H5_init_library()
  %23 = icmp slt i32 %22, 0
  %24 = xor i1 %23, true
  %25 = xor i1 %24, true
  %26 = zext i1 %25 to i32
  %27 = sext i32 %26 to i64
  %28 = icmp ne i64 %27, 0
  br i1 %28, label %29, label %44

29:                                               ; preds = %21
  br label %30

30:                                               ; preds = %29
  br label %31

31:                                               ; preds = %30
  br label %32

32:                                               ; preds = %31
  %33 = load i64, ptr @H5E_FUNC_g, align 8
  %34 = load i64, ptr @H5E_CANTINIT_g, align 8
  %35 = call i32 (ptr, ptr, i32, i64, i64, ptr, ...) @H5E_printf_stack(ptr noundef @.str, ptr noundef @__func__.H5Pcopy, i32 noundef 90, i64 noundef %33, i64 noundef %34, ptr noundef @.str.1)
  br label %36

36:                                               ; preds = %32
  store i8 1, ptr %6, align 1
  %37 = load i8, ptr %6, align 1
  %38 = trunc i8 %37 to i1
  %39 = zext i1 %38 to i8
  store i8 %39, ptr %6, align 1
  br label %40

40:                                               ; preds = %36
  br label %41

41:                                               ; preds = %40
  store i64 -1, ptr %4, align 8
  br label %184

42:                                               ; No predecessors!
  br label %43

43:                                               ; preds = %42
  br label %44

44:                                               ; preds = %43, %21
  br label %45

45:                                               ; preds = %44, %14
  %46 = call i32 @H5CX_push()
  %47 = icmp slt i32 %46, 0
  %48 = xor i1 %47, true
  %49 = xor i1 %48, true
  %50 = zext i1 %49 to i32
  %51 = sext i32 %50 to i64
  %52 = icmp ne i64 %51, 0
  br i1 %52, label %53, label %68

53:                                               ; preds = %45
  br label %54

54:                                               ; preds = %53
  br label %55

55:                                               ; preds = %54
  br label %56

56:                                               ; preds = %55
  %57 = load i64, ptr @H5E_FUNC_g, align 8
  %58 = load i64, ptr @H5E_CANTSET_g, align 8
  %59 = call i32 (ptr, ptr, i32, i64, i64, ptr, ...) @H5E_printf_stack(ptr noundef @.str, ptr noundef @__func__.H5Pcopy, i32 noundef 90, i64 noundef %57, i64 noundef %58, ptr noundef @.str.2)
  br label %60

60:                                               ; preds = %56
  store i8 1, ptr %6, align 1
  %61 = load i8, ptr %6, align 1
  %62 = trunc i8 %61 to i1
  %63 = zext i1 %62 to i8
  store i8 %63, ptr %6, align 1
  br label %64

64:                                               ; preds = %60
  br label %65

65:                                               ; preds = %64
  store i64 -1, ptr %4, align 8
  br label %184

66:                                               ; No predecessors!
  br label %67

67:                                               ; preds = %66
  br label %69

68:                                               ; preds = %45
  store i8 1, ptr %5, align 1
  br label %69

69:                                               ; preds = %68, %67
  %70 = call i32 @H5E_clear_stack()
  %71 = load i64, ptr %2, align 8
  %72 = icmp eq i64 0, %71
  br i1 %72, label %73, label %76

73:                                               ; preds = %69
  br label %74

74:                                               ; preds = %73
  store i64 0, ptr %4, align 8
  br label %184

75:                                               ; No predecessors!
  br label %76

76:                                               ; preds = %75, %69
  %77 = load i64, ptr %2, align 8
  %78 = call i32 @H5I_get_type(i64 noundef %77)
  %79 = icmp ne i32 11, %78
  br i1 %79, label %80, label %99

80:                                               ; preds = %76
  %81 = load i64, ptr %2, align 8
  %82 = call i32 @H5I_get_type(i64 noundef %81)
  %83 = icmp ne i32 10, %82
  br i1 %83, label %84, label %99

84:                                               ; preds = %80
  br label %85

85:                                               ; preds = %84
  br label %86

86:                                               ; preds = %85
  br label %87

87:                                               ; preds = %86
  %88 = load i64, ptr @H5E_ARGS_g, align 8
  %89 = load i64, ptr @H5E_BADTYPE_g, align 8
  %90 = call i32 (ptr, ptr, i32, i64, i64, ptr, ...) @H5E_printf_stack(ptr noundef @.str, ptr noundef @__func__.H5Pcopy, i32 noundef 97, i64 noundef %88, i64 noundef %89, ptr noundef @.str.3)
  br label %91

91:                                               ; preds = %87
  store i8 1, ptr %6, align 1
  %92 = load i8, ptr %6, align 1
  %93 = trunc i8 %92 to i1
  %94 = zext i1 %93 to i8
  store i8 %94, ptr %6, align 1
  br label %95

95:                                               ; preds = %91
  br label %96

96:                                               ; preds = %95
  store i64 -1, ptr %4, align 8
  br label %184

97:                                               ; No predecessors!
  br label %98

98:                                               ; preds = %97
  br label %99

99:                                               ; preds = %98, %80, %76
  %100 = load i64, ptr %2, align 8
  %101 = call ptr @H5I_object(i64 noundef %100)
  store ptr %101, ptr %3, align 8
  %102 = icmp eq ptr null, %101
  br i1 %102, label %103, label %118

103:                                              ; preds = %99
  br label %104

104:                                              ; preds = %103
  br label %105

105:                                              ; preds = %104
  br label %106

106:                                              ; preds = %105
  %107 = load i64, ptr @H5E_PLIST_g, align 8
  %108 = load i64, ptr @H5E_NOTFOUND_g, align 8
  %109 = call i32 (ptr, ptr, i32, i64, i64, ptr, ...) @H5E_printf_stack(ptr noundef @.str, ptr noundef @__func__.H5Pcopy, i32 noundef 99, i64 noundef %107, i64 noundef %108, ptr noundef @.str.4)
  br label %110

110:                                              ; preds = %106
  store i8 1, ptr %6, align 1
  %111 = load i8, ptr %6, align 1
  %112 = trunc i8 %111 to i1
  %113 = zext i1 %112 to i8
  store i8 %113, ptr %6, align 1
  br label %114

114:                                              ; preds = %110
  br label %115

115:                                              ; preds = %114
  store i64 -1, ptr %4, align 8
  br label %184

116:                                              ; No predecessors!
  br label %117

117:                                              ; preds = %116
  br label %118

118:                                              ; preds = %117, %99
  %119 = load i64, ptr %2, align 8
  %120 = call i32 @H5I_get_type(i64 noundef %119)
  %121 = icmp eq i32 11, %120
  br i1 %121, label %122, label %142

122:                                              ; preds = %118
  %123 = load ptr, ptr %3, align 8
  %124 = call i64 @H5P_copy_plist(ptr noundef %123, i1 noundef zeroext true)
  store i64 %124, ptr %4, align 8
  %125 = icmp slt i64 %124, 0
  br i1 %125, label %126, label %141

126:                                              ; preds = %122
  br label %127

127:                                              ; preds = %126
  br label %128

128:                                              ; preds = %127
  br label %129

129:                                              ; preds = %128
  %130 = load i64, ptr @H5E_PLIST_g, align 8
  %131 = load i64, ptr @H5E_CANTCOPY_g, align 8
  %132 = call i32 (ptr, ptr, i32, i64, i64, ptr, ...) @H5E_printf_stack(ptr noundef @.str, ptr noundef @__func__.H5Pcopy, i32 noundef 104, i64 noundef %130, i64 noundef %131, ptr noundef @.str.5)
  br label %133

133:                                              ; preds = %129
  store i8 1, ptr %6, align 1
  %134 = load i8, ptr %6, align 1
  %135 = trunc i8 %134 to i1
  %136 = zext i1 %135 to i8
  store i8 %136, ptr %6, align 1
  br label %137

137:                                              ; preds = %133
  br label %138

138:                                              ; preds = %137
  store i64 -1, ptr %4, align 8
  br label %184

139:                                              ; No predecessors!
  br label %140

140:                                              ; preds = %139
  br label %141

141:                                              ; preds = %140, %122
  br label %183

142:                                              ; preds = %118
  %143 = load ptr, ptr %3, align 8
  %144 = call ptr @H5P__copy_pclass(ptr noundef %143)
  store ptr %144, ptr %7, align 8
  %145 = icmp eq ptr %144, null
  br i1 %145, label %146, label %161

146:                                              ; preds = %142
  br label %147

147:                                              ; preds = %146
  br label %148

148:                                              ; preds = %147
  br label %149

149:                                              ; preds = %148
  %150 = load i64, ptr @H5E_PLIST_g, align 8
  %151 = load i64, ptr @H5E_CANTCOPY_g, align 8
  %152 = call i32 (ptr, ptr, i32, i64, i64, ptr, ...) @H5E_printf_stack(ptr noundef @.str, ptr noundef @__func__.H5Pcopy, i32 noundef 112, i64 noundef %150, i64 noundef %151, ptr noundef @.str.6)
  br label %153

153:                                              ; preds = %149
  store i8 1, ptr %6, align 1
  %154 = load i8, ptr %6, align 1
  %155 = trunc i8 %154 to i1
  %156 = zext i1 %155 to i8
  store i8 %156, ptr %6, align 1
  br label %157

157:                                              ; preds = %153
  br label %158

158:                                              ; preds = %157
  store i64 -1, ptr %4, align 8
  br label %184

159:                                              ; No predecessors!
  br label %160

160:                                              ; preds = %159
  br label %161

161:                                              ; preds = %160, %142
  %162 = load ptr, ptr %7, align 8
  %163 = call i64 @H5I_register(i32 noundef 10, ptr noundef %162, i1 noundef zeroext true)
  store i64 %163, ptr %4, align 8
  %164 = icmp slt i64 %163, 0
  br i1 %164, label %165, label %182

165:                                              ; preds = %161
  %166 = load ptr, ptr %7, align 8
  %167 = call i32 @H5P__close_class(ptr noundef %166)
  br label %168

168:                                              ; preds = %165
  br label %169

169:                                              ; preds = %168
  br label %170

170:                                              ; preds = %169
  %171 = load i64, ptr @H5E_PLIST_g, align 8
  %172 = load i64, ptr @H5E_CANTREGISTER_g, align 8
  %173 = call i32 (ptr, ptr, i32, i64, i64, ptr, ...) @H5E_printf_stack(ptr noundef @.str, ptr noundef @__func__.H5Pcopy, i32 noundef 118, i64 noundef %171, i64 noundef %172, ptr noundef @.str.7)
  br label %174

174:                                              ; preds = %170
  store i8 1, ptr %6, align 1
  %175 = load i8, ptr %6, align 1
  %176 = trunc i8 %175 to i1
  %177 = zext i1 %176 to i8
  store i8 %177, ptr %6, align 1
  br label %178

178:                                              ; preds = %174
  br label %179

179:                                              ; preds = %178
  store i64 -1, ptr %4, align 8
  br label %184

180:                                              ; No predecessors!
  br label %181

181:                                              ; preds = %180
  br label %182

182:                                              ; preds = %181, %161
  br label %183

183:                                              ; preds = %182, %141
  br label %184

184:                                              ; preds = %183, %179, %158, %138, %115, %96, %74, %65, %41
  %185 = load i8, ptr %5, align 1
  %186 = trunc i8 %185 to i1
  %187 = xor i1 %186, true
  %188 = xor i1 %187, true
  %189 = zext i1 %188 to i32
  %190 = sext i32 %189 to i64
  %191 = icmp ne i64 %190, 0
  br i1 %191, label %192, label %194

192:                                              ; preds = %184
  %193 = call i32 @H5CX_pop(i1 noundef zeroext true)
  store i8 0, ptr %5, align 1
  br label %194

194:                                              ; preds = %192, %184
  %195 = load i8, ptr %6, align 1
  %196 = trunc i8 %195 to i1
  %197 = xor i1 %196, true
  %198 = xor i1 %197, true
  %199 = zext i1 %198 to i32
  %200 = sext i32 %199 to i64
  %201 = icmp ne i64 %200, 0
  br i1 %201, label %202, label %204

202:                                              ; preds = %194
  %203 = call i32 @H5E_dump_api_stack()
  br label %204

204:                                              ; preds = %202, %194
  %205 = load i64, ptr %4, align 8
  ret i64 %205
}