; Function Attrs: nounwind uwtable
define range(i64 -1, -9223372036854775808) i64 @H5Pcopy(i64 noundef %0) local_unnamed_addr #0 {
  %2 = load i8, ptr @H5_libinit_g, align 1
  %3 = trunc i8 %2 to i1
  %4 = load i8, ptr @H5_libterm_g, align 1
  %5 = trunc i8 %4 to i1
  %6 = select i1 %3, i1 true, i1 %5
  br i1 %6, label %14, label %7

7:                                                ; preds = %1
  %8 = tail call i32 @H5_init_library() #2
  %9 = icmp slt i32 %8, 0
  br i1 %9, label %10, label %14

10:                                               ; preds = %7
  %11 = load i64, ptr @H5E_FUNC_g, align 8
  %12 = load i64, ptr @H5E_CANTINIT_g, align 8
  %13 = tail call i32 (ptr, ptr, i32, i64, i64, ptr, ...) @H5E_printf_stack(ptr noundef nonnull @.str, ptr noundef nonnull @__func__.H5Pcopy, i32 noundef 90, i64 noundef %11, i64 noundef %12, ptr noundef nonnull @.str.1) #2
  br label %.thread34

14:                                               ; preds = %7, %1
  %15 = tail call i32 @H5CX_push() #2
  %16 = icmp slt i32 %15, 0
  br i1 %16, label %17, label %21

17:                                               ; preds = %14
  %18 = load i64, ptr @H5E_FUNC_g, align 8
  %19 = load i64, ptr @H5E_CANTSET_g, align 8
  %20 = tail call i32 (ptr, ptr, i32, i64, i64, ptr, ...) @H5E_printf_stack(ptr noundef nonnull @.str, ptr noundef nonnull @__func__.H5Pcopy, i32 noundef 90, i64 noundef %18, i64 noundef %19, ptr noundef nonnull @.str.2) #2
  br label %.thread34

21:                                               ; preds = %14
  %22 = tail call i32 @H5E_clear_stack() #2
  %23 = icmp eq i64 %0, 0
  br i1 %23, label %65, label %24

24:                                               ; preds = %21
  %25 = tail call i32 @H5I_get_type(i64 noundef %0) #2
  %.not = icmp eq i32 %25, 11
  br i1 %.not, label %32, label %26

26:                                               ; preds = %24
  %27 = tail call i32 @H5I_get_type(i64 noundef %0) #2
  %.not25 = icmp eq i32 %27, 10
  br i1 %.not25, label %32, label %28

28:                                               ; preds = %26
  %29 = load i64, ptr @H5E_ARGS_g, align 8
  %30 = load i64, ptr @H5E_BADTYPE_g, align 8
  %31 = tail call i32 (ptr, ptr, i32, i64, i64, ptr, ...) @H5E_printf_stack(ptr noundef nonnull @.str, ptr noundef nonnull @__func__.H5Pcopy, i32 noundef 97, i64 noundef %29, i64 noundef %30, ptr noundef nonnull @.str.3) #2
  br label %.thread40

32:                                               ; preds = %26, %24
  %33 = tail call ptr @H5I_object(i64 noundef %0) #2
  %34 = icmp eq ptr %33, null
  br i1 %34, label %35, label %39

35:                                               ; preds = %32
  %36 = load i64, ptr @H5E_PLIST_g, align 8
  %37 = load i64, ptr @H5E_NOTFOUND_g, align 8
  %38 = tail call i32 (ptr, ptr, i32, i64, i64, ptr, ...) @H5E_printf_stack(ptr noundef nonnull @.str, ptr noundef nonnull @__func__.H5Pcopy, i32 noundef 99, i64 noundef %36, i64 noundef %37, ptr noundef nonnull @.str.4) #2
  br label %.thread40

39:                                               ; preds = %32
  %40 = tail call i32 @H5I_get_type(i64 noundef %0) #2
  %41 = icmp eq i32 %40, 11
  br i1 %41, label %42, label %49

42:                                               ; preds = %39
  %43 = tail call i64 @H5P_copy_plist(ptr noundef nonnull %33, i1 noundef zeroext true) #2
  %44 = icmp slt i64 %43, 0
  br i1 %44, label %45, label %65

45:                                               ; preds = %42
  %46 = load i64, ptr @H5E_PLIST_g, align 8
  %47 = load i64, ptr @H5E_CANTCOPY_g, align 8
  %48 = tail call i32 (ptr, ptr, i32, i64, i64, ptr, ...) @H5E_printf_stack(ptr noundef nonnull @.str, ptr noundef nonnull @__func__.H5Pcopy, i32 noundef 104, i64 noundef %46, i64 noundef %47, ptr noundef nonnull @.str.5) #2
  br label %.thread40

49:                                               ; preds = %39
  %50 = tail call ptr @H5P__copy_pclass(ptr noundef nonnull %33) #2
  %51 = icmp eq ptr %50, null
  br i1 %51, label %52, label %56

52:                                               ; preds = %49
  %53 = load i64, ptr @H5E_PLIST_g, align 8
  %54 = load i64, ptr @H5E_CANTCOPY_g, align 8
  %55 = tail call i32 (ptr, ptr, i32, i64, i64, ptr, ...) @H5E_printf_stack(ptr noundef nonnull @.str, ptr noundef nonnull @__func__.H5Pcopy, i32 noundef 112, i64 noundef %53, i64 noundef %54, ptr noundef nonnull @.str.6) #2
  br label %.thread40

56:                                               ; preds = %49
  %57 = tail call i64 @H5I_register(i32 noundef 10, ptr noundef nonnull %50, i1 noundef zeroext true) #2
  %58 = icmp slt i64 %57, 0
  br i1 %58, label %59, label %65

59:                                               ; preds = %56
  %60 = tail call i32 @H5P__close_class(ptr noundef nonnull %50) #2
  %61 = load i64, ptr @H5E_PLIST_g, align 8
  %62 = load i64, ptr @H5E_CANTREGISTER_g, align 8
  %63 = tail call i32 (ptr, ptr, i32, i64, i64, ptr, ...) @H5E_printf_stack(ptr noundef nonnull @.str, ptr noundef nonnull @__func__.H5Pcopy, i32 noundef 118, i64 noundef %61, i64 noundef %62, ptr noundef nonnull @.str.7) #2
  br label %.thread40

.thread40:                                        ; preds = %59, %52, %45, %35, %28
  %64 = tail call i32 @H5CX_pop(i1 noundef zeroext true) #2
  br label %.thread34

65:                                               ; preds = %21, %56, %42
  %.0.ph = phi i64 [ 0, %21 ], [ %57, %56 ], [ %43, %42 ]
  %66 = tail call i32 @H5CX_pop(i1 noundef zeroext true) #2
  br label %68

.thread34:                                        ; preds = %17, %10, %.thread40
  %67 = tail call i32 @H5E_dump_api_stack() #2
  br label %68

68:                                               ; preds = %65, %.thread34
  %.03137 = phi i64 [ -1, %.thread34 ], [ %.0.ph, %65 ]
  ret i64 %.03137
}